target datalayout = "e-m:e-p270:32:32-p271:32:32-p272:64:64-i64:64-i128:128-f80:128-n8:16:32:64-S128"
target triple = "x86_64-pc-linux-gnu"

@.str.29 = private unnamed_addr constant [59 x i8] c"Out of memory, malloc failed (tried to allocate %lu bytes)\00", align 1
@.str.30 = private unnamed_addr constant [49 x i8] c"Data too large to fit into virtual memory space.\00", align 1
@memory_limit_check.limit = internal global i64 0, align 8
@.str.31 = private unnamed_addr constant [16 x i8] c"GIT_ALLOC_LIMIT\00", align 1
@.str.32 = private unnamed_addr constant [42 x i8] c"attempting to allocate %lu over limit %lu\00", align 1

; Function Attrs: nounwind uwtable
define internal i32 @memory_limit_check(i64 noundef %0, i32 noundef %1) #0 {
  %3 = alloca i32, align 4
  %4 = alloca i64, align 8
  %5 = alloca i32, align 4
  store i64 %0, ptr %4, align 8, !tbaa !9
  store i32 %1, ptr %5, align 4, !tbaa !11
  %6 = load i64, ptr @memory_limit_check.limit, align 8, !tbaa !9
  %7 = icmp ne i64 %6, 0
  br i1 %7, label %14, label %8

8:                                                ; preds = %2
  %9 = call i64 @git_env_ulong(ptr noundef @.str.31, i64 noundef 0)
  store i64 %9, ptr @memory_limit_check.limit, align 8, !tbaa !9
  %10 = load i64, ptr @memory_limit_check.limit, align 8, !tbaa !9
  %11 = icmp ne i64 %10, 0
  br i1 %11, label %13, label %12

12:                                               ; preds = %8
  store i64 -1, ptr @memory_limit_check.limit, align 8, !tbaa !9
  br label %13

13:                                               ; preds = %12, %8
  br label %14

14:                                               ; preds = %13, %2
  %15 = load i64, ptr %4, align 8, !tbaa !9
  %16 = load i64, ptr @memory_limit_check.limit, align 8, !tbaa !9
  %17 = icmp ugt i64 %15, %16
  br i1 %17, label %18, label %29

18:                                               ; preds = %14
  %19 = load i32, ptr %5, align 4, !tbaa !11
  %20 = icmp ne i32 %19, 0
  br i1 %20, label %21, label %26

21:                                               ; preds = %18
  %22 = load i64, ptr %4, align 8, !tbaa !9
  %23 = load i64, ptr @memory_limit_check.limit, align 8, !tbaa !9
  %24 = call i32 (ptr, ...) @error(ptr noundef @.str.32, i64 noundef %22, i64 noundef %23)
  %25 = call i32 @const_error()
  store i32 -1, ptr %3, align 4
  br label %30

26:                                               ; preds = %18
  %27 = load i64, ptr %4, align 8, !tbaa !9
  %28 = load i64, ptr @memory_limit_check.limit, align 8, !tbaa !9
  call void (ptr, ...) @die(ptr noundef @.str.32, i64 noundef %27, i64 noundef %28) #14
  unreachable

29:                                               ; preds = %14
  store i32 0, ptr %3, align 4
  br label %30

30:                                               ; preds = %29, %21
  %31 = load i32, ptr %3, align 4
  ret i32 %31
}

; Function Attrs: nounwind uwtable
define internal ptr @do_xmalloc(i64 noundef %0, i32 noundef %1) #0 {
  %3 = alloca ptr, align 8
  %4 = alloca i64, align 8
  %5 = alloca i32, align 4
  %6 = alloca ptr, align 8
  %7 = alloca i32, align 4
  store i64 %0, ptr %4, align 8, !tbaa !9
  store i32 %1, ptr %5, align 4, !tbaa !11
  call void @llvm.lifetime.start.p0(i64 8, ptr %6) #13
  %8 = load i64, ptr %4, align 8, !tbaa !9
  %9 = load i32, ptr %5, align 4, !tbaa !11
  %10 = call i32 @memory_limit_check(i64 noundef %8, i32 noundef %9)
  %11 = icmp ne i32 %10, 0
  br i1 %11, label %12, label %13

12:                                               ; preds = %2
  store ptr null, ptr %3, align 8
  store i32 1, ptr %7, align 4
  br label %37

13:                                               ; preds = %2
  %14 = load i64, ptr %4, align 8, !tbaa !9
  %15 = call noalias ptr @malloc(i64 noundef %14) #15
  store ptr %15, ptr %6, align 8, !tbaa !13
  %16 = load ptr, ptr %6, align 8, !tbaa !13
  %17 = icmp ne ptr %16, null
  br i1 %17, label %23, label %18

18:                                               ; preds = %13
  %19 = load i64, ptr %4, align 8, !tbaa !9
  %20 = icmp ne i64 %19, 0
  br i1 %20, label %23, label %21

21:                                               ; preds = %18
  %22 = call noalias ptr @malloc(i64 noundef 1) #15
  store ptr %22, ptr %6, align 8, !tbaa !13
  br label %23

23:                                               ; preds = %21, %18, %13
  %24 = load ptr, ptr %6, align 8, !tbaa !13
  %25 = icmp ne ptr %24, null
  br i1 %25, label %35, label %26

26:                                               ; preds = %23
  %27 = load i32, ptr %5, align 4, !tbaa !11
  %28 = icmp ne i32 %27, 0
  br i1 %28, label %31, label %29

29:                                               ; preds = %26
  %30 = load i64, ptr %4, align 8, !tbaa !9
  call void (ptr, ...) @die(ptr noundef @.str.29, i64 noundef %30) #14
  unreachable

31:                                               ; preds = %26
  %32 = load i64, ptr %4, align 8, !tbaa !9
  %33 = call i32 (ptr, ...) @error(ptr noundef @.str.29, i64 noundef %32)
  %34 = call i32 @const_error()
  store ptr null, ptr %3, align 8
  store i32 1, ptr %7, align 4
  br label %37

35:                                               ; preds = %23
  %36 = load ptr, ptr %6, align 8, !tbaa !13
  store ptr %36, ptr %3, align 8
  store i32 1, ptr %7, align 4
  br label %37

37:                                               ; preds = %35, %31, %12
  call void @llvm.lifetime.end.p0(i64 8, ptr %6) #13
  %38 = load ptr, ptr %3, align 8
  ret ptr %38
}

; Function Attrs: inlinehint nounwind uwtable
define internal i32 @const_error() #8 {
  ret i32 -1
}

; Function Attrs: nounwind uwtable
define internal ptr @do_xmallocz(i64 noundef %0, i32 noundef %1) #0 {
  %3 = alloca ptr, align 8
  %4 = alloca i64, align 8
  %5 = alloca i32, align 4
  %6 = alloca ptr, align 8
  %7 = alloca i32, align 4
  store i64 %0, ptr %4, align 8, !tbaa !9
  store i32 %1, ptr %5, align 4, !tbaa !11
  call void @llvm.lifetime.start.p0(i64 8, ptr %6) #13
  %8 = load i64, ptr %4, align 8, !tbaa !9
  %9 = sub i64 -1, %8
  %10 = icmp ugt i64 1, %9
  br i1 %10, label %11, label %18

11:                                               ; preds = %2
  %12 = load i32, ptr %5, align 4, !tbaa !11
  %13 = icmp ne i32 %12, 0
  br i1 %13, label %14, label %17

14:                                               ; preds = %11
  %15 = call i32 (ptr, ...) @error(ptr noundef @.str.30)
  %16 = call i32 @const_error()
  store ptr null, ptr %3, align 8
  store i32 1, ptr %7, align 4
  br label %31

17:                                               ; preds = %11
  call void (ptr, ...) @die(ptr noundef @.str.30) #14
  unreachable

18:                                               ; preds = %2
  %19 = load i64, ptr %4, align 8, !tbaa !9
  %20 = add i64 %19, 1
  %21 = load i32, ptr %5, align 4, !tbaa !11
  %22 = call ptr @do_xmalloc(i64 noundef %20, i32 noundef %21)
  store ptr %22, ptr %6, align 8, !tbaa !13
  %23 = load ptr, ptr %6, align 8, !tbaa !13
  %24 = icmp ne ptr %23, null
  br i1 %24, label %25, label %29

25:                                               ; preds = %18
  %26 = load ptr, ptr %6, align 8, !tbaa !13
  %27 = load i64, ptr %4, align 8, !tbaa !9
  %28 = getelementptr inbounds nuw i8, ptr %26, i64 %27
  store i8 0, ptr %28, align 1, !tbaa !14
  br label %29

29:                                               ; preds = %25, %18
  %30 = load ptr, ptr %6, align 8, !tbaa !13
  store ptr %30, ptr %3, align 8
  store i32 1, ptr %7, align 4
  br label %31

31:                                               ; preds = %29, %14
  call void @llvm.lifetime.end.p0(i64 8, ptr %6) #13
  %32 = load ptr, ptr %3, align 8
  ret ptr %32
}

; Function Attrs: nounwind uwtable
define dso_local ptr @xmallocz(i64 noundef %0) #0 {
  %2 = alloca i64, align 8
  store i64 %0, ptr %2, align 8, !tbaa !9
  %3 = load i64, ptr %2, align 8, !tbaa !9
  %4 = call ptr @do_xmallocz(i64 noundef %3, i32 noundef 0)
  ret ptr %4
}

; Function Attrs: nounwind uwtable
define dso_local ptr @xmemdupz(ptr noundef %0, i64 noundef %1) #0 {
  %3 = alloca ptr, align 8
  %4 = alloca i64, align 8
  store ptr %0, ptr %3, align 8, !tbaa !13
  store i64 %1, ptr %4, align 8, !tbaa !9
  %5 = load i64, ptr %4, align 8, !tbaa !9
  %6 = call ptr @xmallocz(i64 noundef %5)
  %7 = load ptr, ptr %3, align 8, !tbaa !13
  %8 = load i64, ptr %4, align 8, !tbaa !9
  call void @llvm.memcpy.p0.p0.i64(ptr align 1 %6, ptr align 1 %7, i64 %8, i1 false)
  ret ptr %6
}