; Function Attrs: nounwind uwtable
define dso_local noalias noundef ptr @xmemdupz(ptr noundef readonly captures(none) %0, i64 noundef %1) local_unnamed_addr #0 {
  %3 = icmp eq i64 %1, -1
  br i1 %3, label %4, label %5

4:                                                ; preds = %2
  tail call void (ptr, ...) @die(ptr noundef nonnull @.str.30) #21
  unreachable

5:                                                ; preds = %2
  %6 = add nuw i64 %1, 1
  %7 = load i64, ptr @memory_limit_check.limit, align 8, !tbaa !4
  %.not.i.i.i.i = icmp eq i64 %7, 0
  br i1 %.not.i.i.i.i, label %8, label %10

8:                                                ; preds = %5
  %9 = tail call i64 @git_env_ulong(ptr noundef nonnull @.str.31, i64 noundef 0) #20
  %.not7.i.i.i.i = icmp eq i64 %9, 0
  %spec.store.select.i.i.i.i = select i1 %.not7.i.i.i.i, i64 -1, i64 %9
  store i64 %spec.store.select.i.i.i.i, ptr @memory_limit_check.limit, align 8
  br label %10

10:                                               ; preds = %8, %5
  %11 = phi i64 [ %spec.store.select.i.i.i.i, %8 ], [ %7, %5 ]
  %.not.i.i = icmp ult i64 %1, %11
  br i1 %.not.i.i, label %13, label %12

12:                                               ; preds = %10
  tail call void (ptr, ...) @die(ptr noundef nonnull @.str.32, i64 noundef %6, i64 noundef %11) #21
  unreachable

13:                                               ; preds = %10
  %14 = tail call noalias ptr @malloc(i64 noundef %6) #22
  %.not12.i.i.i = icmp eq ptr %14, null
  br i1 %.not12.i.i.i, label %15, label %xmallocz.exit

15:                                               ; preds = %13
  tail call void (ptr, ...) @die(ptr noundef nonnull @.str.29, i64 noundef %6) #21
  unreachable

xmallocz.exit:                                    ; preds = %13
  %16 = getelementptr inbounds nuw i8, ptr %14, i64 %1
  store i8 0, ptr %16, align 1, !tbaa !8
  tail call void @llvm.memcpy.p0.p0.i64(ptr nonnull align 1 %14, ptr align 1 %0, i64 %1, i1 false)
  ret ptr %14
}